; Function Attrs: nounwind uwtable
define dso_local void @fd_close(ptr noundef captures(address_is_null) %0) #0 {
  %.not = icmp eq ptr %0, null
  br i1 %.not, label %7, label %2

2:                                                ; preds = %1
  %3 = load i32, ptr %0, align 4
  %4 = icmp sgt i32 %3, -1
  br i1 %4, label %5, label %7

5:                                                ; preds = %2
  %6 = tail call i32 @close(i32 noundef %3) #10
  store i32 -1, ptr %0, align 4
  br label %7

7:                                                ; preds = %5, %2, %1
  ret void
}